target datalayout = "e-m:e-p270:32:32-p271:32:32-p272:64:64-i64:64-i128:128-f80:128-n8:16:32:64-S128"
target triple = "x86_64-pc-linux-gnu"

%"class.icu_77::MessageFormat" = type { %"class.icu_77::Format", %"class.icu_77::Locale", %"class.icu_77::MessagePattern", ptr, i32, ptr, i32, i32, i8, ptr, ptr, ptr, ptr, %"class.icu_77::MessageFormat::PluralSelectorProvider", %"class.icu_77::MessageFormat::PluralSelectorProvider" }
%"class.icu_77::Format" = type { %"class.icu_77::UObject", ptr, ptr }
%"class.icu_77::UObject" = type { ptr }
%"class.icu_77::Locale" = type <{ %"class.icu_77::UObject", [12 x i8], [6 x i8], [4 x i8], [2 x i8], i32, [4 x i8], ptr, [157 x i8], [3 x i8], ptr, i8, [7 x i8] }>
%"class.icu_77::MessagePattern" = type <{ %"class.icu_77::UObject", i32, [4 x i8], %"class.icu_77::UnicodeString", ptr, ptr, i32, [4 x i8], ptr, ptr, i32, i8, i8, i8, i8 }>
%"class.icu_77::UnicodeString" = type { %"class.icu_77::Replaceable", %"union.icu_77::UnicodeString::StackBufferOrFields" }
%"class.icu_77::Replaceable" = type { %"class.icu_77::UObject" }
%"union.icu_77::UnicodeString::StackBufferOrFields" = type { %struct.anon.0, [32 x i8] }
%struct.anon.0 = type { i16, i32, i32, ptr }
%"class.icu_77::MessageFormat::PluralSelectorProvider" = type <{ %"class.icu_77::PluralFormat::PluralSelector", ptr, ptr, i32, [4 x i8] }>
%"class.icu_77::PluralFormat::PluralSelector" = type { ptr }
%struct.UParseError = type { i32, i32, [16 x i16], [16 x i16] }
%"class.icu_77::ConstChar16Ptr" = type { ptr }

; Function Attrs: mustprogress nounwind uwtable
define linkonce_odr noundef signext i8 @_ZN6icu_7720MessageFormatAdapter19hasArgTypeConflictsERKNS_13MessageFormatE(ptr noundef nonnull align 8 dereferenceable(512) %0) #1 comdat align 2 {
  %2 = alloca ptr, align 8
  store ptr %0, ptr %2, align 8, !tbaa !3
  %3 = load ptr, ptr %2, align 8, !tbaa !3
  %4 = getelementptr inbounds nuw %"class.icu_77::MessageFormat", ptr %3, i32 0, i32 8
  %5 = load i8, ptr %4, align 8, !tbaa !71
  ret i8 %5
}

; Function Attrs: inlinehint mustprogress nounwind uwtable
define internal noundef signext i8 @_ZL9U_SUCCESS10UErrorCode(i32 noundef %0) #4 {
  %2 = alloca i32, align 4
  store i32 %0, ptr %2, align 4, !tbaa !46
  %3 = load i32, ptr %2, align 4, !tbaa !46
  %4 = icmp sle i32 %3, 0
  %5 = zext i1 %4 to i8
  ret i8 %5
}

; Function Attrs: inlinehint mustprogress nounwind uwtable
define linkonce_odr void @_ZN6icu_7714ConstChar16PtrD2Ev(ptr noundef nonnull align 8 dereferenceable(8) %0) unnamed_addr #4 comdat align 2 {
  %2 = alloca ptr, align 8
  store ptr %0, ptr %2, align 8, !tbaa !66
  %3 = load ptr, ptr %2, align 8
  %4 = getelementptr inbounds nuw %"class.icu_77::ConstChar16Ptr", ptr %3, i32 0, i32 0
  %5 = load ptr, ptr %4, align 8, !tbaa !68
  call void asm sideeffect "", "rm,~{memory},~{dirflag},~{fpsr},~{flags}"(ptr %5) #13, !srcloc !70
  ret void
}

; Function Attrs: inlinehint mustprogress nounwind uwtable
define linkonce_odr void @_ZN6icu_7714ConstChar16PtrC2EPKDs(ptr noundef nonnull align 8 dereferenceable(8) %0, ptr noundef %1) unnamed_addr #4 comdat align 2 {
  %3 = alloca ptr, align 8
  %4 = alloca ptr, align 8
  store ptr %0, ptr %3, align 8, !tbaa !66
  store ptr %1, ptr %4, align 8, !tbaa !38
  %5 = load ptr, ptr %3, align 8
  %6 = getelementptr inbounds nuw %"class.icu_77::ConstChar16Ptr", ptr %5, i32 0, i32 0
  %7 = load ptr, ptr %4, align 8, !tbaa !38
  store ptr %7, ptr %6, align 8, !tbaa !68
  ret void
}

; Function Attrs: inlinehint mustprogress nounwind uwtable
define internal noundef signext i8 @_ZL9U_FAILURE10UErrorCode(i32 noundef %0) #4 {
  %2 = alloca i32, align 4
  store i32 %0, ptr %2, align 4, !tbaa !46
  %3 = load i32, ptr %2, align 4, !tbaa !46
  %4 = icmp sgt i32 %3, 0
  %5 = zext i1 %4 to i8
  ret i8 %5
}

; Function Attrs: mustprogress uwtable
define ptr @umsg_open_77(ptr noundef %0, i32 noundef %1, ptr noundef %2, ptr noundef %3, ptr noundef %4) #0 personality ptr @__gxx_personality_v0 {
  %6 = alloca ptr, align 8
  %7 = alloca ptr, align 8
  %8 = alloca i32, align 4
  %9 = alloca ptr, align 8
  %10 = alloca ptr, align 8
  %11 = alloca ptr, align 8
  %12 = alloca %struct.UParseError, align 4
  %13 = alloca i32, align 4
  %14 = alloca %"class.icu_77::UnicodeString", align 8
  %15 = alloca %"class.icu_77::ConstChar16Ptr", align 8
  %16 = alloca ptr, align 8
  %17 = alloca i32, align 4
  %18 = alloca ptr, align 8
  %19 = alloca ptr, align 8
  %20 = alloca i1, align 1
  %21 = alloca %"class.icu_77::Locale", align 8
  %22 = alloca i1, align 1
  %23 = alloca i1, align 1
  %24 = alloca i32, align 4
  store ptr %0, ptr %7, align 8, !tbaa !38
  store i32 %1, ptr %8, align 4, !tbaa !35
  store ptr %2, ptr %9, align 8, !tbaa !37
  store ptr %3, ptr %10, align 8, !tbaa !44
  store ptr %4, ptr %11, align 8, !tbaa !40
  %25 = load ptr, ptr %11, align 8, !tbaa !40
  %26 = icmp eq ptr %25, null
  br i1 %26, label %32, label %27

27:                                               ; preds = %5
  %28 = load ptr, ptr %11, align 8, !tbaa !40
  %29 = load i32, ptr %28, align 4, !tbaa !46
  %30 = call noundef signext i8 @_ZL9U_FAILURE10UErrorCode(i32 noundef %29)
  %31 = icmp ne i8 %30, 0
  br i1 %31, label %32, label %33

32:                                               ; preds = %27, %5
  store ptr null, ptr %6, align 8
  br label %126

33:                                               ; preds = %27
  %34 = load ptr, ptr %7, align 8, !tbaa !38
  %35 = icmp eq ptr %34, null
  br i1 %35, label %39, label %36

36:                                               ; preds = %33
  %37 = load i32, ptr %8, align 4, !tbaa !35
  %38 = icmp slt i32 %37, -1
  br i1 %38, label %39, label %41

39:                                               ; preds = %36, %33
  %40 = load ptr, ptr %11, align 8, !tbaa !40
  store i32 1, ptr %40, align 4, !tbaa !46
  store ptr null, ptr %6, align 8
  br label %126

41:                                               ; preds = %36
  call void @llvm.lifetime.start.p0(i64 72, ptr %12) #13
  %42 = load ptr, ptr %10, align 8, !tbaa !44
  %43 = icmp eq ptr %42, null
  br i1 %43, label %44, label %45

44:                                               ; preds = %41
  store ptr %12, ptr %10, align 8, !tbaa !44
  br label %45

45:                                               ; preds = %44, %41
  call void @llvm.lifetime.start.p0(i64 4, ptr %13) #13
  %46 = load i32, ptr %8, align 4, !tbaa !35
  %47 = icmp eq i32 %46, -1
  br i1 %47, label %48, label %51

48:                                               ; preds = %45
  %49 = load ptr, ptr %7, align 8, !tbaa !38
  %50 = call i32 @u_strlen_77(ptr noundef %49)
  br label %53

51:                                               ; preds = %45
  %52 = load i32, ptr %8, align 4, !tbaa !35
  br label %53

53:                                               ; preds = %51, %48
  %54 = phi i32 [ %50, %48 ], [ %52, %51 ]
  store i32 %54, ptr %13, align 4, !tbaa !35
  call void @llvm.lifetime.start.p0(i64 64, ptr %14) #13
  %55 = load i32, ptr %8, align 4, !tbaa !35
  %56 = icmp eq i32 %55, -1
  %57 = zext i1 %56 to i8
  %58 = load ptr, ptr %7, align 8, !tbaa !38
  call void @_ZN6icu_7714ConstChar16PtrC2EPKDs(ptr noundef nonnull align 8 dereferenceable(8) %15, ptr noundef %58)
  %59 = load i32, ptr %13, align 4, !tbaa !35
  invoke void @_ZN6icu_7713UnicodeStringC1EaNS_14ConstChar16PtrEi(ptr noundef nonnull align 8 dereferenceable(64) %14, i8 noundef signext %57, ptr noundef %15, i32 noundef %59)
          to label %60 unwind label %81

60:                                               ; preds = %53
  call void @_ZN6icu_7714ConstChar16PtrD2Ev(ptr noundef nonnull align 8 dereferenceable(8) %15) #13
  call void @llvm.lifetime.start.p0(i64 8, ptr %18) #13
  %61 = call noundef ptr @_ZN6icu_777UMemorynwEm(i64 noundef 512) #13
  %62 = icmp eq ptr %61, null
  store i1 false, ptr %20, align 1
  store i1 false, ptr %22, align 1
  store i1 false, ptr %23, align 1
  br i1 %62, label %69, label %63

63:                                               ; preds = %60
  store ptr %61, ptr %19, align 8
  store i1 true, ptr %20, align 1
  call void @llvm.lifetime.start.p0(i64 224, ptr %21) #13
  store i1 true, ptr %22, align 1
  %64 = load ptr, ptr %9, align 8, !tbaa !37
  invoke void @_ZN6icu_776LocaleC1EPKcS2_S2_S2_(ptr noundef nonnull align 8 dereferenceable(217) %21, ptr noundef %64, ptr noundef null, ptr noundef null, ptr noundef null)
          to label %65 unwind label %85

65:                                               ; preds = %63
  store i1 true, ptr %23, align 1
  %66 = load ptr, ptr %10, align 8, !tbaa !44
  %67 = load ptr, ptr %11, align 8, !tbaa !40
  invoke void @_ZN6icu_7713MessageFormatC1ERKNS_13UnicodeStringERKNS_6LocaleER11UParseErrorR10UErrorCode(ptr noundef nonnull align 8 dereferenceable(512) %61, ptr noundef nonnull align 8 dereferenceable(64) %14, ptr noundef nonnull align 8 dereferenceable(217) %21, ptr noundef nonnull align 4 dereferenceable(72) %66, ptr noundef nonnull align 4 dereferenceable(4) %67)
          to label %68 unwind label %89

68:                                               ; preds = %65
  store i1 false, ptr %20, align 1
  br label %69

69:                                               ; preds = %68, %60
  %70 = phi ptr [ %61, %68 ], [ null, %60 ]
  %71 = load i1, ptr %23, align 1
  br i1 %71, label %72, label %73

72:                                               ; preds = %69
  call void @_ZN6icu_776LocaleD1Ev(ptr noundef nonnull align 8 dereferenceable(217) %21) #13
  br label %73

73:                                               ; preds = %72, %69
  %74 = load i1, ptr %22, align 1
  br i1 %74, label %75, label %76

75:                                               ; preds = %73
  call void @llvm.lifetime.end.p0(i64 224, ptr %21) #13
  br label %76

76:                                               ; preds = %75, %73
  store ptr %70, ptr %18, align 8, !tbaa !3
  %77 = load ptr, ptr %18, align 8, !tbaa !3
  %78 = icmp eq ptr %77, null
  br i1 %78, label %79, label %104

79:                                               ; preds = %76
  %80 = load ptr, ptr %11, align 8, !tbaa !40
  store i32 7, ptr %80, align 4, !tbaa !46
  store ptr null, ptr %6, align 8
  store i32 1, ptr %24, align 4
  br label %123

81:                                               ; preds = %53
  %82 = landingpad { ptr, i32 }
          cleanup
  %83 = extractvalue { ptr, i32 } %82, 0
  store ptr %83, ptr %16, align 8
  %84 = extractvalue { ptr, i32 } %82, 1
  store i32 %84, ptr %17, align 4
  call void @_ZN6icu_7714ConstChar16PtrD2Ev(ptr noundef nonnull align 8 dereferenceable(8) %15) #13
  br label %125

85:                                               ; preds = %63
  %86 = landingpad { ptr, i32 }
          cleanup
  %87 = extractvalue { ptr, i32 } %86, 0
  store ptr %87, ptr %16, align 8
  %88 = extractvalue { ptr, i32 } %86, 1
  store i32 %88, ptr %17, align 4
  br label %96

89:                                               ; preds = %65
  %90 = landingpad { ptr, i32 }
          cleanup
  %91 = extractvalue { ptr, i32 } %90, 0
  store ptr %91, ptr %16, align 8
  %92 = extractvalue { ptr, i32 } %90, 1
  store i32 %92, ptr %17, align 4
  %93 = load i1, ptr %23, align 1
  br i1 %93, label %94, label %95

94:                                               ; preds = %89
  call void @_ZN6icu_776LocaleD1Ev(ptr noundef nonnull align 8 dereferenceable(217) %21) #13
  br label %95

95:                                               ; preds = %94, %89
  br label %96

96:                                               ; preds = %95, %85
  %97 = load i1, ptr %22, align 1
  br i1 %97, label %98, label %99

98:                                               ; preds = %96
  call void @llvm.lifetime.end.p0(i64 224, ptr %21) #13
  br label %99

99:                                               ; preds = %98, %96
  %100 = load i1, ptr %20, align 1
  br i1 %100, label %101, label %103

101:                                              ; preds = %99
  %102 = load ptr, ptr %19, align 8
  call void @_ZN6icu_777UMemorydlEPv(ptr noundef %102) #13
  br label %103

103:                                              ; preds = %101, %99
  br label %124

104:                                              ; preds = %76
  %105 = load ptr, ptr %11, align 8, !tbaa !40
  %106 = load i32, ptr %105, align 4, !tbaa !46
  %107 = invoke noundef signext i8 @_ZL9U_SUCCESS10UErrorCode(i32 noundef %106)
          to label %108 unwind label %117

108:                                              ; preds = %104
  %109 = icmp ne i8 %107, 0
  br i1 %109, label %110, label %121

110:                                              ; preds = %108
  %111 = load ptr, ptr %18, align 8, !tbaa !3
  %112 = invoke noundef signext i8 @_ZN6icu_7720MessageFormatAdapter19hasArgTypeConflictsERKNS_13MessageFormatE(ptr noundef nonnull align 8 dereferenceable(512) %111)
          to label %113 unwind label %117

113:                                              ; preds = %110
  %114 = icmp ne i8 %112, 0
  br i1 %114, label %115, label %121

115:                                              ; preds = %113
  %116 = load ptr, ptr %11, align 8, !tbaa !40
  store i32 65804, ptr %116, align 4, !tbaa !46
  br label %121

117:                                              ; preds = %110, %104
  %118 = landingpad { ptr, i32 }
          cleanup
  %119 = extractvalue { ptr, i32 } %118, 0
  store ptr %119, ptr %16, align 8
  %120 = extractvalue { ptr, i32 } %118, 1
  store i32 %120, ptr %17, align 4
  br label %124

121:                                              ; preds = %115, %113, %108
  %122 = load ptr, ptr %18, align 8, !tbaa !3
  store ptr %122, ptr %6, align 8
  store i32 1, ptr %24, align 4
  br label %123

123:                                              ; preds = %121, %79
  call void @llvm.lifetime.end.p0(i64 8, ptr %18) #13
  call void @_ZN6icu_7713UnicodeStringD1Ev(ptr noundef nonnull align 8 dereferenceable(64) %14) #13
  call void @llvm.lifetime.end.p0(i64 64, ptr %14) #13
  call void @llvm.lifetime.end.p0(i64 4, ptr %13) #13
  call void @llvm.lifetime.end.p0(i64 72, ptr %12) #13
  br label %126

124:                                              ; preds = %117, %103
  call void @llvm.lifetime.end.p0(i64 8, ptr %18) #13
  call void @_ZN6icu_7713UnicodeStringD1Ev(ptr noundef nonnull align 8 dereferenceable(64) %14) #13
  br label %125

125:                                              ; preds = %124, %81
  call void @llvm.lifetime.end.p0(i64 64, ptr %14) #13
  call void @llvm.lifetime.end.p0(i64 4, ptr %13) #13
  call void @llvm.lifetime.end.p0(i64 72, ptr %12) #13
  br label %128

126:                                              ; preds = %123, %39, %32
  %127 = load ptr, ptr %6, align 8
  ret ptr %127

128:                                              ; preds = %125
  %129 = load ptr, ptr %16, align 8
  %130 = load i32, ptr %17, align 4
  %131 = insertvalue { ptr, i32 } poison, ptr %129, 0
  %132 = insertvalue { ptr, i32 } %131, i32 %130, 1
  resume { ptr, i32 } %132
}