; Function Attrs: mustprogress uwtable
define noundef ptr @umsg_open_77(ptr noundef %0, i32 noundef %1, ptr noundef %2, ptr noundef %3, ptr noundef %4) local_unnamed_addr #1 personality ptr @__gxx_personality_v0 {
  %6 = alloca %struct.UParseError, align 4
  %7 = alloca %"class.icu_77::UnicodeString", align 8
  %8 = alloca %"class.icu_77::ConstChar16Ptr", align 8
  %9 = alloca %"class.icu_77::Locale", align 8
  %10 = icmp eq ptr %4, null
  br i1 %10, label %47, label %11

11:                                               ; preds = %5
  %12 = load i32, ptr %4, align 4, !tbaa !36
  %13 = icmp slt i32 %12, 1
  br i1 %13, label %14, label %47

14:                                               ; preds = %11
  %15 = icmp eq ptr %0, null
  %16 = icmp slt i32 %1, -1
  %or.cond = or i1 %15, %16
  br i1 %or.cond, label %17, label %18

17:                                               ; preds = %14
  store i32 1, ptr %4, align 4, !tbaa !36
  br label %47

18:                                               ; preds = %14
  call void @llvm.lifetime.start.p0(i64 72, ptr nonnull %6) #10
  %19 = icmp eq ptr %3, null
  %spec.store.select = select i1 %19, ptr %6, ptr %3
  %20 = icmp eq i32 %1, -1
  br i1 %20, label %21, label %23

21:                                               ; preds = %18
  %22 = tail call i32 @u_strlen_77(ptr noundef nonnull %0)
  br label %23

23:                                               ; preds = %18, %21
  %24 = phi i32 [ %22, %21 ], [ %1, %18 ]
  call void @llvm.lifetime.start.p0(i64 64, ptr nonnull %7) #10
  %25 = zext i1 %20 to i8
  store ptr %0, ptr %8, align 8, !tbaa !38
  invoke void @_ZN6icu_7713UnicodeStringC1EaNS_14ConstChar16PtrEi(ptr noundef nonnull align 8 dereferenceable(64) %7, i8 noundef signext %25, ptr noundef nonnull %8, i32 noundef %24)
          to label %26 unwind label %31

26:                                               ; preds = %23
  %27 = load ptr, ptr %8, align 8, !tbaa !38
  call void asm sideeffect "", "rm,~{memory},~{dirflag},~{fpsr},~{flags}"(ptr %27) #10, !srcloc !41
  %28 = call noundef ptr @_ZN6icu_777UMemorynwEm(i64 noundef 512) #10
  %.not43 = icmp eq ptr %28, null
  br i1 %.not43, label %.sink.split, label %29

29:                                               ; preds = %26
  call void @llvm.lifetime.start.p0(i64 224, ptr nonnull %9) #10
  invoke void @_ZN6icu_776LocaleC1EPKcS2_S2_S2_(ptr noundef nonnull align 8 dereferenceable(217) %9, ptr noundef %2, ptr noundef null, ptr noundef null, ptr noundef null)
          to label %30 unwind label %34

30:                                               ; preds = %29
  invoke void @_ZN6icu_7713MessageFormatC1ERKNS_13UnicodeStringERKNS_6LocaleER11UParseErrorR10UErrorCode(ptr noundef nonnull align 8 dereferenceable(512) %28, ptr noundef nonnull align 8 dereferenceable(64) %7, ptr noundef nonnull align 8 dereferenceable(217) %9, ptr noundef nonnull align 4 dereferenceable(72) %spec.store.select, ptr noundef nonnull align 4 dereferenceable(4) %4)
          to label %39 unwind label %36

31:                                               ; preds = %23
  %32 = landingpad { ptr, i32 }
          cleanup
  %33 = load ptr, ptr %8, align 8, !tbaa !38
  call void asm sideeffect "", "rm,~{memory},~{dirflag},~{fpsr},~{flags}"(ptr %33) #10, !srcloc !41
  br label %46

34:                                               ; preds = %29
  %35 = landingpad { ptr, i32 }
          cleanup
  br label %38

36:                                               ; preds = %30
  %37 = landingpad { ptr, i32 }
          cleanup
  call void @_ZN6icu_776LocaleD1Ev(ptr noundef nonnull align 8 dereferenceable(217) %9) #10
  br label %38

38:                                               ; preds = %34, %36
  %.pn = phi { ptr, i32 } [ %37, %36 ], [ %35, %34 ]
  call void @llvm.lifetime.end.p0(i64 224, ptr nonnull %9) #10
  call void @_ZN6icu_777UMemorydlEPv(ptr noundef nonnull %28) #10
  call void @_ZN6icu_7713UnicodeStringD1Ev(ptr noundef nonnull align 8 dereferenceable(64) %7) #10
  br label %46

39:                                               ; preds = %30
  call void @_ZN6icu_776LocaleD1Ev(ptr noundef nonnull align 8 dereferenceable(217) %9) #10
  call void @llvm.lifetime.end.p0(i64 224, ptr nonnull %9) #10
  %40 = load i32, ptr %4, align 4, !tbaa !36
  %41 = icmp sgt i32 %40, 0
  br i1 %41, label %45, label %42

42:                                               ; preds = %39
  %43 = getelementptr inbounds nuw i8, ptr %28, i64 408
  %44 = load i8, ptr %43, align 8, !tbaa !42
  %.not45 = icmp eq i8 %44, 0
  br i1 %.not45, label %45, label %.sink.split

.sink.split:                                      ; preds = %42, %26
  %.sink = phi i32 [ 7, %26 ], [ 65804, %42 ]
  store i32 %.sink, ptr %4, align 4, !tbaa !36
  br label %45

45:                                               ; preds = %.sink.split, %39, %42
  call void @_ZN6icu_7713UnicodeStringD1Ev(ptr noundef nonnull align 8 dereferenceable(64) %7) #10
  call void @llvm.lifetime.end.p0(i64 64, ptr nonnull %7) #10
  call void @llvm.lifetime.end.p0(i64 72, ptr nonnull %6) #10
  br label %47

46:                                               ; preds = %38, %31
  %.pn.pn = phi { ptr, i32 } [ %.pn, %38 ], [ %32, %31 ]
  call void @llvm.lifetime.end.p0(i64 64, ptr nonnull %7) #10
  call void @llvm.lifetime.end.p0(i64 72, ptr nonnull %6) #10
  resume { ptr, i32 } %.pn.pn

47:                                               ; preds = %5, %11, %45, %17
  %.031 = phi ptr [ null, %17 ], [ %28, %45 ], [ null, %11 ], [ null, %5 ]
  ret ptr %.031
}